target datalayout = "e-m:e-p270:32:32-p271:32:32-p272:64:64-i64:64-i128:128-f80:128-n8:16:32:64-S128"
target triple = "x86_64-pc-linux-gnu"

%struct.nghttp2_map = type { ptr, ptr, i64, i64 }
%struct.nghttp2_map_bucket = type { i32, i32, ptr }

@.str.3 = private unnamed_addr constant [111 x i8] c"generated/home/dtcxzyw/WorkSpace/Projects/compilers/llvm-opt-benchmark/bench/nghttp2/nghttp2/lib/nghttp2_map.c\00", align 1
@.str.4 = private unnamed_addr constant [8 x i8] c"0 == rv\00", align 1
@__PRETTY_FUNCTION__.map_resize = private unnamed_addr constant [38 x i8] c"int map_resize(nghttp2_map *, size_t)\00", align 1

; Function Attrs: nounwind uwtable
define internal void @map_bucket_swap(ptr noundef %0, ptr noundef %1) #0 {
  %3 = alloca ptr, align 8
  %4 = alloca ptr, align 8
  %5 = alloca %struct.nghttp2_map_bucket, align 8
  store ptr %0, ptr %3, align 8, !tbaa !17
  store ptr %1, ptr %4, align 8, !tbaa !17
  call void @llvm.lifetime.start.p0(i64 16, ptr %5) #7
  %6 = load ptr, ptr %3, align 8, !tbaa !17
  call void @llvm.memcpy.p0.p0.i64(ptr align 8 %5, ptr align 8 %6, i64 16, i1 false), !tbaa.struct !30
  %7 = load ptr, ptr %3, align 8, !tbaa !17
  %8 = load ptr, ptr %4, align 8, !tbaa !17
  call void @llvm.memcpy.p0.p0.i64(ptr align 8 %7, ptr align 8 %8, i64 16, i1 false), !tbaa.struct !30
  %9 = load ptr, ptr %4, align 8, !tbaa !17
  call void @llvm.memcpy.p0.p0.i64(ptr align 8 %9, ptr align 8 %5, i64 16, i1 false), !tbaa.struct !30
  call void @llvm.lifetime.end.p0(i64 16, ptr %5) #7
  ret void
}

; Function Attrs: nounwind uwtable
define internal i64 @hash(i32 noundef %0, i64 noundef %1) #0 {
  %3 = alloca i32, align 4
  %4 = alloca i64, align 8
  store i32 %0, ptr %3, align 4, !tbaa !21
  store i64 %1, ptr %4, align 8, !tbaa !16
  %5 = load i32, ptr %3, align 4, !tbaa !21
  %6 = mul i32 %5, -1640531527
  %7 = load i64, ptr %4, align 8, !tbaa !16
  %8 = sub i64 32, %7
  %9 = trunc i64 %8 to i32
  %10 = lshr i32 %6, %9
  %11 = zext i32 %10 to i64
  ret i64 %11
}

; Function Attrs: nounwind uwtable
define internal i32 @insert(ptr noundef %0, i64 noundef %1, i32 noundef %2, ptr noundef %3) #0 {
  %5 = alloca i32, align 4
  %6 = alloca ptr, align 8
  %7 = alloca i64, align 8
  %8 = alloca i32, align 4
  %9 = alloca ptr, align 8
  %10 = alloca i64, align 8
  %11 = alloca %struct.nghttp2_map_bucket, align 8
  %12 = alloca ptr, align 8
  %13 = alloca i64, align 8
  %14 = alloca i32, align 4
  store ptr %0, ptr %6, align 8, !tbaa !17
  store i64 %1, ptr %7, align 8, !tbaa !16
  store i32 %2, ptr %8, align 4, !tbaa !21
  store ptr %3, ptr %9, align 8, !tbaa !8
  call void @llvm.lifetime.start.p0(i64 8, ptr %10) #7
  %15 = load i32, ptr %8, align 4, !tbaa !21
  %16 = load i64, ptr %7, align 8, !tbaa !16
  %17 = call i64 @hash(i32 noundef %15, i64 noundef %16)
  store i64 %17, ptr %10, align 8, !tbaa !16
  call void @llvm.lifetime.start.p0(i64 16, ptr %11) #7
  %18 = getelementptr inbounds nuw %struct.nghttp2_map_bucket, ptr %11, i32 0, i32 0
  store i32 0, ptr %18, align 8, !tbaa !27
  %19 = getelementptr inbounds nuw %struct.nghttp2_map_bucket, ptr %11, i32 0, i32 1
  %20 = load i32, ptr %8, align 4, !tbaa !21
  store i32 %20, ptr %19, align 4, !tbaa !26
  %21 = getelementptr inbounds nuw %struct.nghttp2_map_bucket, ptr %11, i32 0, i32 2
  %22 = load ptr, ptr %9, align 8, !tbaa !8
  store ptr %22, ptr %21, align 8, !tbaa !18
  call void @llvm.lifetime.start.p0(i64 8, ptr %12) #7
  call void @llvm.lifetime.start.p0(i64 8, ptr %13) #7
  %23 = load i64, ptr %7, align 8, !tbaa !16
  %24 = trunc i64 %23 to i32
  %25 = shl i32 1, %24
  %26 = sub i32 %25, 1
  %27 = zext i32 %26 to i64
  store i64 %27, ptr %13, align 8, !tbaa !16
  br label %28

28:                                               ; preds = %55, %4
  %29 = load ptr, ptr %6, align 8, !tbaa !17
  %30 = load i64, ptr %10, align 8, !tbaa !16
  %31 = getelementptr inbounds nuw %struct.nghttp2_map_bucket, ptr %29, i64 %30
  store ptr %31, ptr %12, align 8, !tbaa !17
  %32 = load ptr, ptr %12, align 8, !tbaa !17
  %33 = getelementptr inbounds nuw %struct.nghttp2_map_bucket, ptr %32, i32 0, i32 2
  %34 = load ptr, ptr %33, align 8, !tbaa !18
  %35 = icmp eq ptr %34, null
  br i1 %35, label %36, label %38

36:                                               ; preds = %28
  %37 = load ptr, ptr %12, align 8, !tbaa !17
  call void @llvm.memcpy.p0.p0.i64(ptr align 8 %37, ptr align 8 %11, i64 16, i1 false), !tbaa.struct !30
  store i32 0, ptr %5, align 4
  store i32 1, ptr %14, align 4
  br label %63

38:                                               ; preds = %28
  %39 = getelementptr inbounds nuw %struct.nghttp2_map_bucket, ptr %11, i32 0, i32 0
  %40 = load i32, ptr %39, align 8, !tbaa !27
  %41 = load ptr, ptr %12, align 8, !tbaa !17
  %42 = getelementptr inbounds nuw %struct.nghttp2_map_bucket, ptr %41, i32 0, i32 0
  %43 = load i32, ptr %42, align 8, !tbaa !27
  %44 = icmp ugt i32 %40, %43
  br i1 %44, label %45, label %47

45:                                               ; preds = %38
  %46 = load ptr, ptr %12, align 8, !tbaa !17
  call void @map_bucket_swap(ptr noundef %46, ptr noundef %11)
  br label %55

47:                                               ; preds = %38
  %48 = load ptr, ptr %12, align 8, !tbaa !17
  %49 = getelementptr inbounds nuw %struct.nghttp2_map_bucket, ptr %48, i32 0, i32 1
  %50 = load i32, ptr %49, align 4, !tbaa !26
  %51 = load i32, ptr %8, align 4, !tbaa !21
  %52 = icmp eq i32 %50, %51
  br i1 %52, label %53, label %54

53:                                               ; preds = %47
  store i32 -501, ptr %5, align 4
  store i32 1, ptr %14, align 4
  br label %63

54:                                               ; preds = %47
  br label %55

55:                                               ; preds = %54, %45
  %56 = getelementptr inbounds nuw %struct.nghttp2_map_bucket, ptr %11, i32 0, i32 0
  %57 = load i32, ptr %56, align 8, !tbaa !27
  %58 = add i32 %57, 1
  store i32 %58, ptr %56, align 8, !tbaa !27
  %59 = load i64, ptr %10, align 8, !tbaa !16
  %60 = add i64 %59, 1
  %61 = load i64, ptr %13, align 8, !tbaa !16
  %62 = and i64 %60, %61
  store i64 %62, ptr %10, align 8, !tbaa !16
  br label %28

63:                                               ; preds = %53, %36
  call void @llvm.lifetime.end.p0(i64 8, ptr %13) #7
  call void @llvm.lifetime.end.p0(i64 8, ptr %12) #7
  call void @llvm.lifetime.end.p0(i64 16, ptr %11) #7
  call void @llvm.lifetime.end.p0(i64 8, ptr %10) #7
  %64 = load i32, ptr %5, align 4
  ret i32 %64
}

; Function Attrs: nounwind uwtable
define internal i32 @map_resize(ptr noundef %0, i64 noundef %1) #0 {
  %3 = alloca i32, align 4
  %4 = alloca ptr, align 8
  %5 = alloca i64, align 8
  %6 = alloca i64, align 8
  %7 = alloca ptr, align 8
  %8 = alloca ptr, align 8
  %9 = alloca i64, align 8
  %10 = alloca i32, align 4
  %11 = alloca i32, align 4
  store ptr %0, ptr %4, align 8, !tbaa !3
  store i64 %1, ptr %5, align 8, !tbaa !16
  call void @llvm.lifetime.start.p0(i64 8, ptr %6) #7
  call void @llvm.lifetime.start.p0(i64 8, ptr %7) #7
  call void @llvm.lifetime.start.p0(i64 8, ptr %8) #7
  call void @llvm.lifetime.start.p0(i64 8, ptr %9) #7
  call void @llvm.lifetime.start.p0(i64 4, ptr %10) #7
  %12 = load ptr, ptr %4, align 8, !tbaa !3
  %13 = getelementptr inbounds nuw %struct.nghttp2_map, ptr %12, i32 0, i32 1
  %14 = load ptr, ptr %13, align 8, !tbaa !9
  %15 = load i64, ptr %5, align 8, !tbaa !16
  %16 = trunc i64 %15 to i32
  %17 = shl i32 1, %16
  %18 = zext i32 %17 to i64
  %19 = call ptr @nghttp2_mem_calloc(ptr noundef %14, i64 noundef %18, i64 noundef 16)
  store ptr %19, ptr %7, align 8, !tbaa !17
  %20 = load ptr, ptr %7, align 8, !tbaa !17
  %21 = icmp eq ptr %20, null
  br i1 %21, label %22, label %23

22:                                               ; preds = %2
  store i32 -901, ptr %3, align 4
  store i32 1, ptr %11, align 4
  br label %82

23:                                               ; preds = %2
  %24 = load ptr, ptr %4, align 8, !tbaa !3
  %25 = getelementptr inbounds nuw %struct.nghttp2_map, ptr %24, i32 0, i32 2
  %26 = load i64, ptr %25, align 8, !tbaa !15
  %27 = icmp ne i64 %26, 0
  br i1 %27, label %28, label %69

28:                                               ; preds = %23
  %29 = load ptr, ptr %4, align 8, !tbaa !3
  %30 = getelementptr inbounds nuw %struct.nghttp2_map, ptr %29, i32 0, i32 3
  %31 = load i64, ptr %30, align 8, !tbaa !13
  %32 = trunc i64 %31 to i32
  %33 = shl i32 1, %32
  %34 = zext i32 %33 to i64
  store i64 %34, ptr %9, align 8, !tbaa !16
  store i64 0, ptr %6, align 8, !tbaa !16
  br label %35

35:                                               ; preds = %65, %28
  %36 = load i64, ptr %6, align 8, !tbaa !16
  %37 = load i64, ptr %9, align 8, !tbaa !16
  %38 = icmp ult i64 %36, %37
  br i1 %38, label %39, label %68

39:                                               ; preds = %35
  %40 = load ptr, ptr %4, align 8, !tbaa !3
  %41 = getelementptr inbounds nuw %struct.nghttp2_map, ptr %40, i32 0, i32 0
  %42 = load ptr, ptr %41, align 8, !tbaa !14
  %43 = load i64, ptr %6, align 8, !tbaa !16
  %44 = getelementptr inbounds nuw %struct.nghttp2_map_bucket, ptr %42, i64 %43
  store ptr %44, ptr %8, align 8, !tbaa !17
  %45 = load ptr, ptr %8, align 8, !tbaa !17
  %46 = getelementptr inbounds nuw %struct.nghttp2_map_bucket, ptr %45, i32 0, i32 2
  %47 = load ptr, ptr %46, align 8, !tbaa !18
  %48 = icmp eq ptr %47, null
  br i1 %48, label %49, label %50

49:                                               ; preds = %39
  br label %65

50:                                               ; preds = %39
  %51 = load ptr, ptr %7, align 8, !tbaa !17
  %52 = load i64, ptr %5, align 8, !tbaa !16
  %53 = load ptr, ptr %8, align 8, !tbaa !17
  %54 = getelementptr inbounds nuw %struct.nghttp2_map_bucket, ptr %53, i32 0, i32 1
  %55 = load i32, ptr %54, align 4, !tbaa !26
  %56 = load ptr, ptr %8, align 8, !tbaa !17
  %57 = getelementptr inbounds nuw %struct.nghttp2_map_bucket, ptr %56, i32 0, i32 2
  %58 = load ptr, ptr %57, align 8, !tbaa !18
  %59 = call i32 @insert(ptr noundef %51, i64 noundef %52, i32 noundef %55, ptr noundef %58)
  store i32 %59, ptr %10, align 4, !tbaa !21
  %60 = load i32, ptr %10, align 4, !tbaa !21
  %61 = icmp eq i32 0, %60
  br i1 %61, label %62, label %63

62:                                               ; preds = %50
  br label %64

63:                                               ; preds = %50
  call void @__assert_fail(ptr noundef @.str.4, ptr noundef @.str.3, i32 noundef 173, ptr noundef @__PRETTY_FUNCTION__.map_resize) #8
  unreachable

64:                                               ; preds = %62
  br label %65

65:                                               ; preds = %64, %49
  %66 = load i64, ptr %6, align 8, !tbaa !16
  %67 = add i64 %66, 1
  store i64 %67, ptr %6, align 8, !tbaa !16
  br label %35, !llvm.loop !29

68:                                               ; preds = %35
  br label %69

69:                                               ; preds = %68, %23
  %70 = load ptr, ptr %4, align 8, !tbaa !3
  %71 = getelementptr inbounds nuw %struct.nghttp2_map, ptr %70, i32 0, i32 1
  %72 = load ptr, ptr %71, align 8, !tbaa !9
  %73 = load ptr, ptr %4, align 8, !tbaa !3
  %74 = getelementptr inbounds nuw %struct.nghttp2_map, ptr %73, i32 0, i32 0
  %75 = load ptr, ptr %74, align 8, !tbaa !14
  call void @nghttp2_mem_free(ptr noundef %72, ptr noundef %75)
  %76 = load i64, ptr %5, align 8, !tbaa !16
  %77 = load ptr, ptr %4, align 8, !tbaa !3
  %78 = getelementptr inbounds nuw %struct.nghttp2_map, ptr %77, i32 0, i32 3
  store i64 %76, ptr %78, align 8, !tbaa !13
  %79 = load ptr, ptr %7, align 8, !tbaa !17
  %80 = load ptr, ptr %4, align 8, !tbaa !3
  %81 = getelementptr inbounds nuw %struct.nghttp2_map, ptr %80, i32 0, i32 0
  store ptr %79, ptr %81, align 8, !tbaa !14
  store i32 0, ptr %3, align 4
  store i32 1, ptr %11, align 4
  br label %82

82:                                               ; preds = %69, %22
  call void @llvm.lifetime.end.p0(i64 4, ptr %10) #7
  call void @llvm.lifetime.end.p0(i64 8, ptr %9) #7
  call void @llvm.lifetime.end.p0(i64 8, ptr %8) #7
  call void @llvm.lifetime.end.p0(i64 8, ptr %7) #7
  call void @llvm.lifetime.end.p0(i64 8, ptr %6) #7
  %83 = load i32, ptr %3, align 4
  ret i32 %83
}