; Function Attrs: nounwind uwtable
define internal fastcc range(i32 -901, 1) i32 @map_resize(ptr noundef captures(none) %0, i64 noundef range(i64 2, 1) %1) unnamed_addr #1 {
  %3 = getelementptr inbounds nuw i8, ptr %0, i64 8
  %4 = load ptr, ptr %3, align 8, !tbaa !3
  %5 = trunc i64 %1 to i32
  %6 = shl nuw i32 1, %5
  %7 = zext i32 %6 to i64
  %8 = tail call ptr @nghttp2_mem_calloc(ptr noundef %4, i64 noundef %7, i64 noundef 16) #12
  %9 = icmp eq ptr %8, null
  br i1 %9, label %59, label %10

10:                                               ; preds = %2
  %11 = getelementptr inbounds nuw i8, ptr %0, i64 16
  %12 = load i64, ptr %11, align 8, !tbaa !11
  %.not = icmp eq i64 %12, 0
  br i1 %.not, label %.loopexit, label %13

13:                                               ; preds = %10
  %14 = getelementptr inbounds nuw i8, ptr %0, i64 24
  %15 = load i64, ptr %14, align 8, !tbaa !12
  %16 = trunc i64 %15 to i32
  %17 = shl nuw i32 1, %16
  %18 = zext i32 %17 to i64
  %19 = sub i32 32, %5
  %notmask.i = shl nsw i32 -1, %5
  %20 = xor i32 %notmask.i, -1
  %21 = zext nneg i32 %20 to i64
  br label %22

22:                                               ; preds = %13, %54
  %.02228 = phi i64 [ 0, %13 ], [ %55, %54 ]
  %23 = load ptr, ptr %0, align 8, !tbaa !10
  %24 = getelementptr inbounds nuw %struct.nghttp2_map_bucket, ptr %23, i64 %.02228
  %25 = getelementptr inbounds nuw i8, ptr %24, i64 8
  %26 = load ptr, ptr %25, align 8, !tbaa !13
  %27 = icmp eq ptr %26, null
  br i1 %27, label %54, label %28

28:                                               ; preds = %22
  %29 = getelementptr inbounds nuw i8, ptr %24, i64 4
  %30 = load i32, ptr %29, align 4, !tbaa !20
  %31 = mul i32 %30, -1640531527
  %32 = lshr i32 %31, %19
  %33 = zext i32 %32 to i64
  %34 = getelementptr inbounds nuw %struct.nghttp2_map_bucket, ptr %8, i64 %33
  %35 = getelementptr inbounds nuw i8, ptr %34, i64 8
  %36 = load ptr, ptr %35, align 8, !tbaa !13
  %37 = icmp eq ptr %36, null
  br i1 %37, label %insert.exit.thread, label %.lr.ph.i

insert.exit.thread:                               ; preds = %46, %28
  %.sroa.10.0.lcssa.i = phi ptr [ %26, %28 ], [ %.sroa.10.1.i, %46 ]
  %.sroa.9.0.lcssa.i = phi i32 [ %30, %28 ], [ %.sroa.9.1.i, %46 ]
  %.sroa.0.0.lcssa.i = phi i32 [ 0, %28 ], [ %47, %46 ]
  %.lcssa29.i = phi ptr [ %34, %28 ], [ %50, %46 ]
  %.lcssa.i = phi ptr [ %35, %28 ], [ %51, %46 ]
  store i32 %.sroa.0.0.lcssa.i, ptr %.lcssa29.i, align 8, !tbaa !23
  %.sroa.9.0..sroa_idx.i = getelementptr inbounds nuw i8, ptr %.lcssa29.i, i64 4
  store i32 %.sroa.9.0.lcssa.i, ptr %.sroa.9.0..sroa_idx.i, align 4, !tbaa !23
  store ptr %.sroa.10.0.lcssa.i, ptr %.lcssa.i, align 8, !tbaa !24
  br label %54

.lr.ph.i:                                         ; preds = %28, %46
  %38 = phi ptr [ %52, %46 ], [ %36, %28 ]
  %39 = phi ptr [ %51, %46 ], [ %35, %28 ]
  %40 = phi ptr [ %50, %46 ], [ %34, %28 ]
  %.01537.i = phi i64 [ %49, %46 ], [ %33, %28 ]
  %.sroa.0.036.i = phi i32 [ %47, %46 ], [ 0, %28 ]
  %.sroa.9.035.i = phi i32 [ %.sroa.9.1.i, %46 ], [ %30, %28 ]
  %.sroa.10.034.i = phi ptr [ %.sroa.10.1.i, %46 ], [ %26, %28 ]
  %41 = load i32, ptr %40, align 8, !tbaa !21
  %42 = icmp ugt i32 %.sroa.0.036.i, %41
  %.sroa.4.0..sroa_idx.i = getelementptr inbounds nuw i8, ptr %40, i64 4
  %.sroa.4.0.copyload.i = load i32, ptr %.sroa.4.0..sroa_idx.i, align 4, !tbaa !23
  br i1 %42, label %43, label %44

43:                                               ; preds = %.lr.ph.i
  store i32 %.sroa.0.036.i, ptr %40, align 8, !tbaa !23
  store i32 %.sroa.9.035.i, ptr %.sroa.4.0..sroa_idx.i, align 4, !tbaa !23
  store ptr %.sroa.10.034.i, ptr %39, align 8, !tbaa !24
  br label %46

44:                                               ; preds = %.lr.ph.i
  %45 = icmp eq i32 %.sroa.4.0.copyload.i, %30
  br i1 %45, label %insert.exit, label %46

46:                                               ; preds = %44, %43
  %.sroa.10.1.i = phi ptr [ %38, %43 ], [ %.sroa.10.034.i, %44 ]
  %.sroa.9.1.i = phi i32 [ %.sroa.4.0.copyload.i, %43 ], [ %.sroa.9.035.i, %44 ]
  %.sroa.0.1.i = phi i32 [ %41, %43 ], [ %.sroa.0.036.i, %44 ]
  %47 = add i32 %.sroa.0.1.i, 1
  %48 = add nuw nsw i64 %.01537.i, 1
  %49 = and i64 %48, %21
  %50 = getelementptr inbounds nuw %struct.nghttp2_map_bucket, ptr %8, i64 %49
  %51 = getelementptr inbounds nuw i8, ptr %50, i64 8
  %52 = load ptr, ptr %51, align 8, !tbaa !13
  %53 = icmp eq ptr %52, null
  br i1 %53, label %insert.exit.thread, label %.lr.ph.i

insert.exit:                                      ; preds = %44
  tail call void @__assert_fail(ptr noundef nonnull @.str.4, ptr noundef nonnull @.str.3, i32 noundef 173, ptr noundef nonnull @__PRETTY_FUNCTION__.map_resize) #14
  unreachable

54:                                               ; preds = %insert.exit.thread, %22
  %55 = add nuw nsw i64 %.02228, 1
  %exitcond.not = icmp eq i64 %55, %18
  br i1 %exitcond.not, label %.loopexit, label %22, !llvm.loop !25

.loopexit:                                        ; preds = %54, %10
  %56 = load ptr, ptr %3, align 8, !tbaa !3
  %57 = load ptr, ptr %0, align 8, !tbaa !10
  tail call void @nghttp2_mem_free(ptr noundef %56, ptr noundef %57) #12
  %58 = getelementptr inbounds nuw i8, ptr %0, i64 24
  store i64 %1, ptr %58, align 8, !tbaa !12
  store ptr %8, ptr %0, align 8, !tbaa !10
  br label %59

59:                                               ; preds = %2, %.loopexit
  %.0 = phi i32 [ 0, %.loopexit ], [ -901, %2 ]
  ret i32 %.0
}